-----BEGIN CERTIFICATE-----
MIIHCDCCBPCgAwIBAgIJAMK89k6UIaUuMA0GCSqGSIb3DQEBBQUAMIGoMQswCQYD
VQQGEwJDSDEQMA4GA1UECBMHU29sZXVyZTEOMAwGA1UEBxMFT2x0ZW4xGjAYBgNV
BAoTEUFuY2llbnQgU29sdXRpb25zMRwwGgYDVQQLExNQbGF0Zm9ybSBNYW5hZ2Vt
ZW50MRAwDgYDVQQDEwdSb290IENBMSswKQYJKoZIhvcNAQkBFhxhZG1pbnNAYW5j
aWVudC1zb2x1dGlvbnMuY29tMB4XDTExMDYwNDE5MjkwOVoXDTMxMDUzMDE5Mjkw
OVowgagxCzAJBgNVBAYTAkNIMRAwDgYDVQQIEwdTb2xldXJlMQ4wDAYDVQQHEwVP
bHRlbjEaMBgGA1UEChMRQW5jaWVudCBTb2x1dGlvbnMxHDAaBgNVBAsTE1BsYXRm
b3JtIE1hbmFnZW1lbnQxEDAOBgNVBAMTB1Jvb3QgQ0ExKzApBgkqhkiG9w0BCQEW
HGFkbWluc0BhbmNpZW50LXNvbHV0aW9ucy5jb20wggIiMA0GCSqGSIb3DQEBAQUA
A4ICDwAwggIKAoICAQDW5HF6ncML1poz1Bf2/HtWKXTMMvmpl/Z0kLbO1DzH7Tvl
ROIq5rmXGvczbDsSQ6gdEJ5z0th0jh09mIun2tlgtbVmEVEJfCP8AUQBinDulBht
B856azhMQh9pX6IiO5d6y/Bv7I2xZqGA7ypyCJglsSFbP3XzTqz0eHohzVSDF28U
tpCIQS/BhfXDPUZ+7JY+WTmSAnyUU/CcK8GS6xCIS0ylbytPLqDMg2ivt62aKnsN
pKsgiJNTd7ZMGkHrchc4Xtr0thdGpWJKllu5RLIS/splan7oTmMAVLU1yHUlMl/f
Nh6iH3ZihKqHLCKE+zsIXlf3mgalI6KoSRI/lrRlZF60POByTSf7alyluwtFw1mV
RL1A7KHuH1Em2bwti0m3GQr0M5llmjG8veGKx038MqloUlz9kE6wh9JlwpbFqrxT
wFCNAMyA3rw4tB2EFpmdGWXN5b9u10H9Ds2ux/EjR9gbfp3nK3jyNA5CoKD79nXu
+beyv8cT+5Wj8RLGh1MiQ2sMO14mYKQ7H8xlFMnlAri8qIHh6vq3+HXLqKRpOVxt
n5D15jbeaK+lGuF/4sBBH7u2qpFF0Kiz8bbXx06eyhuV20FJbInPZXqCyh2dkx0l
Pohk6nCD22qwpSrqpV5S367GoGw3YY1TDoOmtemnshZtmP1JKR3WWMfXlh4QGQID
AQABo4IBMTCCAS0wHQYDVR0OBBYEFEDqFiamLHx7JF3Py2ynkCw/ARcKMIHdBgNV
HSMEgdUwgdKAFEDqFiamLHx7JF3Py2ynkCw/ARcKoYGupIGrMIGoMQswCQYDVQQG
EwJDSDEQMA4GA1UECBMHU29sZXVyZTEOMAwGA1UEBxMFT2x0ZW4xGjAYBgNVBAoT
EUFuY2llbnQgU29sdXRpb25zMRwwGgYDVQQLExNQbGF0Zm9ybSBNYW5hZ2VtZW50
MRAwDgYDVQQDEwdSb290IENBMSswKQYJKoZIhvcNAQkBFhxhZG1pbnNAYW5jaWVu
dC1zb2x1dGlvbnMuY29tggkAwrz2TpQhpS4wDAYDVR0TBAUwAwEB/zALBgNVHQ8E
BAMCAQYwEQYJYIZIAYb4QgEBBAQDAgEGMA0GCSqGSIb3DQEBBQUAA4ICAQBcPOLk
0ZVEJFGr65uZRRWm5CGQVZFTs3Cd4drGhUT11xbY/3EvGeHMx2caByCB1txVV1NO
pFj317hXLh9Zdwb81Td9tOYdMMRuuqyY3cdX3apNERsZus47+ioVgUc8Hm55X4be
N2fIr5bo/WX6C9yRWeKDz/W3nKY/CwhkRi1rVNENxMfZi5vVzZfXFQSV16c2uFaD
TIPbWNx+ezpv1jYFo1GJLgIDHFIJQqQFj8WyVrUOgiIOOg8DeTr0lMwa+Knu9ljU
hUwS7ABvNk0hQtlR/e2Pqh435CDF+A1DCBbaD5+SmEarXIh6QO3ej0ymO0PJsePm
/B07z1vglatOI6cOFBWrxXRO7QptqQb7g+SVilZEjv7XYT7ZzFj9cv7jwx/kI8wl
ln8KSvuFi8U5XDDAm7bq7ONfLoy3Qp+lRO/fH2DWSvBtqsfXlf8KqHeIWbnwm3Er
WW400/Syg9aXr8B0zgql37TRCnBiyBiHT+hMSu3qP6wHdwX4vjtLoJUk+dAh64Vd
PHCUrDdxWBQY4vnSUMwLrjy2DZ9WjySJn8UbjFrDlWJQPQcK2ekd157lHxOFXFzf
yssJc1Z1aucECxxQPrq79odKql9alaf1MJwTGJm/56ao236qBBb2Mvxhsop5ryq8
1SGk8JDE8wEkjuj49UxfHg1Z1yrm0ksdIz3fBw==
-----END CERTIFICATE-----
Certificate:
    Data:
        Version: 3 (0x2)
        Serial Number: 1 (0x1)
    Signature Algorithm: sha1WithRSAEncryption
        Issuer: C=CH, ST=Soleure, L=Olten, O=Ancient Solutions, OU=Platform Management, CN=Root CA/emailAddress=admins@ancient-solutions.com
        Validity
            Not Before: Jun 25 21:57:33 2013 GMT
            Not After : Jun 20 21:57:33 2033 GMT
        Subject: C=CH, ST=Soleure, O=Ancient Solutions, OU=Machine Signing, CN=Machine CA
        Subject Public Key Info:
            Public Key Algorithm: rsaEncryption
                Public-Key: (4096 bit)
                Modulus:
                    00:cc:1d:1a:d5:f8:d6:94:8f:ff:8c:7a:15:a5:6f:
                    b7:1f:26:50:d3:11:60:9a:6c:ef:d5:a1:c7:37:1e:
                    dd:10:8c:65:3a:7e:ba:82:a1:d2:7c:0e:5f:da:85:
                    54:f6:9d:84:30:7f:91:f0:af:7a:ed:3b:65:ad:da:
                    dd:3b:75:85:db:3b:13:80:3f:da:99:80:21:b3:4e:
                    7d:db:b9:e0:50:e0:68:13:09:55:61:a8:63:7e:1c:
                    9c:d4:46:71:89:78:26:90:61:8d:b4:14:8c:68:eb:
                    d7:7a:ce:f4:79:6a:2b:50:3a:7b:12:2e:af:c4:e0:
                    74:be:03:e7:2b:9c:5e:db:22:3c:95:d6:7e:b8:4e:
                    ab:61:2a:cd:43:ce:66:b3:ab:4a:97:63:65:c4:b2:
                    74:15:c2:c4:9d:9f:1a:df:5c:ee:76:c3:0a:17:69:
                    81:f6:ae:63:23:e6:0e:ca:bf:37:3a:55:98:24:31:
                    d7:57:9b:5c:c5:02:f8:fc:58:31:15:82:d7:a8:bc:
                    9a:ad:9a:09:87:51:4a:ff:16:5e:f4:20:5f:a6:78:
                    34:f9:28:4c:49:dd:73:16:31:90:90:84:a9:b6:ba:
                    7a:37:20:eb:23:78:5c:64:e3:4a:3d:98:12:c6:84:
                    1c:38:6b:44:70:95:91:2d:b4:a2:33:b6:5c:e0:30:
                    da:be:b4:a7:8c:23:d4:e7:40:50:3a:93:30:0c:32:
                    5a:e6:14:5d:81:90:b3:e0:97:5f:ea:8b:b5:98:df:
                    83:1c:ba:39:78:b5:90:6c:f6:11:51:e1:e8:df:b1:
                    12:f8:6d:ad:5c:a2:38:d3:1a:b0:7a:10:4e:cb:d7:
                    43:b9:65:9a:9a:0f:c3:7b:ec:15:4a:86:3d:51:04:
                    8f:b1:ee:a5:d6:68:2a:8d:76:37:6a:05:70:53:0e:
                    57:e2:93:87:d8:77:96:d1:eb:a3:cd:4e:27:cd:11:
                    68:90:3d:4d:3e:ff:e8:77:53:15:be:73:95:2f:12:
                    03:8d:aa:e6:37:dc:c1:05:d3:39:03:5c:6d:c9:9a:
                    aa:db:d4:9e:c7:80:a2:10:e9:98:fc:29:5b:d7:5d:
                    df:f2:c2:db:2d:16:80:7b:a9:49:0f:2e:99:90:67:
                    57:2f:96:c8:ef:c1:1c:04:a5:63:e3:dd:20:0b:c9:
                    b1:52:a5:cb:bf:5d:16:e1:1b:2b:41:96:05:b9:70:
                    14:e9:b5:2c:7f:72:31:75:2e:be:30:47:2c:b5:d8:
                    9f:49:5e:72:a9:5e:30:51:16:7c:c7:9e:12:9d:ea:
                    d3:60:ab:a8:03:45:65:a9:13:05:26:da:f0:13:dc:
                    d0:7b:b5:89:8f:75:36:ea:77:87:de:6d:27:7d:67:
                    ef:00:6b
                Exponent: 65537 (0x10001)
        X509v3 extensions:
            X509v3 Subject Key Identifier: 
                FD:D7:2E:62:5E:FC:F9:1A:9C:E6:10:DB:91:3E:F4:32:6C:4A:B0:C4
            X509v3 Authority Key Identifier: 
                keyid:40:EA:16:26:A6:2C:7C:7B:24:5D:CF:CB:6C:A7:90:2C:3F:01:17:0A
                DirName:/C=CH/ST=Soleure/L=Olten/O=Ancient Solutions/OU=Platform Management/CN=Root CA/emailAddress=admins@ancient-solutions.com
                serial:C2:BC:F6:4E:94:21:A5:2E

            X509v3 Basic Constraints: 
                CA:TRUE
            X509v3 Key Usage: 
                Certificate Sign, CRL Sign
            Netscape Cert Type: 
                SSL CA, S/MIME CA
    Signature Algorithm: sha1WithRSAEncryption
         7f:7e:48:5e:78:f6:20:dd:c0:c4:5a:df:c6:bf:4a:b4:aa:2a:
         73:2c:07:eb:5c:4f:ba:47:a0:1c:8d:0e:b7:bb:b5:85:46:99:
         5f:aa:71:6a:c9:98:0b:23:71:5f:4c:d4:77:f8:20:49:38:c8:
         12:46:57:51:5d:c0:8d:2f:4a:79:f2:3c:b9:e8:07:18:29:f9:
         54:50:0c:b9:8c:2e:83:6d:8c:0f:06:18:e3:ce:24:b4:55:30:
         1c:45:ef:11:9d:b3:ce:20:d7:f8:e3:8a:4b:ce:45:79:01:de:
         47:5c:22:7a:b6:09:c7:78:d3:36:f9:77:c2:63:3c:44:18:4e:
         69:eb:26:1f:7c:c1:18:e5:e8:98:30:a4:d5:e4:74:05:6f:b3:
         d9:32:73:4b:db:b3:45:88:02:f8:94:b0:60:ab:9b:3d:67:c7:
         13:1d:9e:7f:0b:c8:4a:de:97:57:b6:0d:ed:f8:d3:e5:a0:26:
         72:27:22:d3:87:cf:73:89:2b:53:8c:79:7b:4c:e2:25:b0:28:
         2a:43:fe:ba:89:1d:dd:53:84:df:2a:ca:46:50:01:8f:86:65:
         bb:03:98:6f:54:55:a9:67:c6:bd:f8:6f:4a:60:ed:fa:aa:75:
         59:0c:16:c8:b5:fb:78:27:98:98:ec:02:6f:af:84:02:d6:c9:
         23:83:f2:53:7f:a7:6c:b6:7b:0a:ad:3e:18:91:0f:f5:73:2d:
         7f:c9:3c:86:01:d9:77:da:23:63:31:2f:a8:1a:f0:c0:5e:ca:
         ea:18:90:4c:b0:bb:9b:11:7a:f3:0e:b4:4e:f5:ea:eb:22:80:
         d6:52:f1:e0:37:6f:31:eb:1f:82:ee:8e:94:e7:25:1c:5e:cc:
         82:51:69:bf:6f:6a:5c:eb:b3:92:6e:9a:e1:6e:a7:54:01:b9:
         f1:f6:a4:dd:a0:34:b2:46:81:68:94:23:30:e3:64:fa:ce:51:
         9f:4b:2c:d0:ea:e9:4f:e7:23:08:e0:58:71:3e:04:b5:c4:2b:
         19:e8:9f:ac:e5:e6:96:98:7b:30:74:77:18:43:0b:25:ec:d4:
         ea:ee:4e:32:3d:0e:8f:77:ca:de:e5:35:4a:8b:cd:9e:33:b3:
         3b:58:32:50:21:96:ba:7d:48:97:87:23:82:b0:f8:e4:25:09:
         ed:cc:b7:4d:62:c7:8a:8b:d3:f8:46:75:20:ca:6e:a6:e6:74:
         7b:98:5b:3d:ce:60:4d:b3:ad:96:63:31:7b:8a:3c:dc:29:ed:
         b0:3b:2f:09:1a:5f:02:5b:94:df:1a:bd:df:5b:a2:99:0a:d6:
         7b:0c:2e:89:ab:ca:93:8c:0d:e0:8f:05:5a:d8:98:7c:b3:d9:
         9e:dc:ed:39:ab:1b:b0:df
-----BEGIN CERTIFICATE-----
MIIGwTCCBKmgAwIBAgIBATANBgkqhkiG9w0BAQUFADCBqDELMAkGA1UEBhMCQ0gx
EDAOBgNVBAgTB1NvbGV1cmUxDjAMBgNVBAcTBU9sdGVuMRowGAYDVQQKExFBbmNp
ZW50IFNvbHV0aW9uczEcMBoGA1UECxMTUGxhdGZvcm0gTWFuYWdlbWVudDEQMA4G
A1UEAxMHUm9vdCBDQTErMCkGCSqGSIb3DQEJARYcYWRtaW5zQGFuY2llbnQtc29s
dXRpb25zLmNvbTAeFw0xMzA2MjUyMTU3MzNaFw0zMzA2MjAyMTU3MzNaMGoxCzAJ
BgNVBAYTAkNIMRAwDgYDVQQIEwdTb2xldXJlMRowGAYDVQQKExFBbmNpZW50IFNv
bHV0aW9uczEYMBYGA1UECxMPTWFjaGluZSBTaWduaW5nMRMwEQYDVQQDEwpNYWNo
aW5lIENBMIICIjANBgkqhkiG9w0BAQEFAAOCAg8AMIICCgKCAgEAzB0a1fjWlI//
jHoVpW+3HyZQ0xFgmmzv1aHHNx7dEIxlOn66gqHSfA5f2oVU9p2EMH+R8K967Ttl
rdrdO3WF2zsTgD/amYAhs05927ngUOBoEwlVYahjfhyc1EZxiXgmkGGNtBSMaOvX
es70eWorUDp7Ei6vxOB0vgPnK5xe2yI8ldZ+uE6rYSrNQ85ms6tKl2NlxLJ0FcLE
nZ8a31zudsMKF2mB9q5jI+YOyr83OlWYJDHXV5tcxQL4/FgxFYLXqLyarZoJh1FK
/xZe9CBfpng0+ShMSd1zFjGQkISptrp6NyDrI3hcZONKPZgSxoQcOGtEcJWRLbSi
M7Zc4DDavrSnjCPU50BQOpMwDDJa5hRdgZCz4Jdf6ou1mN+DHLo5eLWQbPYRUeHo
37ES+G2tXKI40xqwehBOy9dDuWWamg/De+wVSoY9UQSPse6l1mgqjXY3agVwUw5X
4pOH2HeW0eujzU4nzRFokD1NPv/od1MVvnOVLxIDjarmN9zBBdM5A1xtyZqq29Se
x4CiEOmY/Clb113f8sLbLRaAe6lJDy6ZkGdXL5bI78EcBKVj490gC8mxUqXLv10W
4RsrQZYFuXAU6bUsf3IxdS6+MEcstdifSV5yqV4wURZ8x54SnerTYKuoA0VlqRMF
JtrwE9zQe7WJj3U26neH3m0nfWfvAGsCAwEAAaOCATEwggEtMB0GA1UdDgQWBBT9
1y5iXvz5GpzmENuRPvQybEqwxDCB3QYDVR0jBIHVMIHSgBRA6hYmpix8eyRdz8ts
p5AsPwEXCqGBrqSBqzCBqDELMAkGA1UEBhMCQ0gxEDAOBgNVBAgTB1NvbGV1cmUx
DjAMBgNVBAcTBU9sdGVuMRowGAYDVQQKExFBbmNpZW50IFNvbHV0aW9uczEcMBoG
A1UECxMTUGxhdGZvcm0gTWFuYWdlbWVudDEQMA4GA1UEAxMHUm9vdCBDQTErMCkG
CSqGSIb3DQEJARYcYWRtaW5zQGFuY2llbnQtc29sdXRpb25zLmNvbYIJAMK89k6U
IaUuMAwGA1UdEwQFMAMBAf8wCwYDVR0PBAQDAgEGMBEGCWCGSAGG+EIBAQQEAwIB
BjANBgkqhkiG9w0BAQUFAAOCAgEAf35IXnj2IN3AxFrfxr9KtKoqcywH61xPukeg
HI0Ot7u1hUaZX6pxasmYCyNxX0zUd/ggSTjIEkZXUV3AjS9KefI8uegHGCn5VFAM
uYwug22MDwYY484ktFUwHEXvEZ2zziDX+OOKS85FeQHeR1wierYJx3jTNvl3wmM8
RBhOaesmH3zBGOXomDCk1eR0BW+z2TJzS9uzRYgC+JSwYKubPWfHEx2efwvISt6X
V7YN7fjT5aAmcici04fPc4krU4x5e0ziJbAoKkP+uokd3VOE3yrKRlABj4ZluwOY
b1RVqWfGvfhvSmDt+qp1WQwWyLX7eCeYmOwCb6+EAtbJI4PyU3+nbLZ7Cq0+GJEP
9XMtf8k8hgHZd9ojYzEvqBrwwF7K6hiQTLC7mxF68w60TvXq6yKA1lLx4DdvMesf
gu6OlOclHF7MglFpv29qXOuzkm6a4W6nVAG58fak3aA0skaBaJQjMONk+s5Rn0ss
0OrpT+cjCOBYcT4EtcQrGeifrOXmlph7MHR3GEMLJezU6u5OMj0Oj3fK3uU1SovN
njOzO1gyUCGWun1Il4cjgrD45CUJ7cy3TWLHiovT+EZ1IMpupuZ0e5hbPc5gTbOt
lmMxe4o83CntsDsvCRpfAluU3xq931uimQrWewwuiavKk4wN4I8FWtiYfLPZntzt
OasbsN8=
-----END CERTIFICATE-----
Certificate:
    Data:
        Version: 3 (0x2)
        Serial Number: 0 (0x0)
    Signature Algorithm: sha1WithRSAEncryption
        Issuer: C=CH, ST=Soleure, L=Olten, O=Ancient Solutions, OU=Platform Management, CN=Root CA/emailAddress=admins@ancient-solutions.com
        Validity
            Not Before: Jun 25 21:56:22 2013 GMT
            Not After : Jun 20 21:56:22 2033 GMT
        Subject: C=CH, ST=Soleure, O=Ancient Solutions, OU=Service Operations, CN=Service CA/emailAddress=admins@ancient-solutions.com
        Subject Public Key Info:
            Public Key Algorithm: rsaEncryption
                Public-Key: (4096 bit)
                Modulus:
                    00:ab:c5:9e:07:22:71:4d:6a:87:5a:85:23:8f:48:
                    37:09:48:20:24:95:74:81:f5:02:3b:78:4a:1a:11:
                    fb:9c:ca:09:4e:eb:76:34:90:5e:3c:e3:1c:45:24:
                    23:91:52:b1:98:a0:e2:d7:3e:cc:8c:a1:72:b7:8a:
                    71:09:e9:c7:81:15:d9:e2:c8:9b:22:a3:12:64:e0:
                    b4:78:47:d2:9e:1e:65:77:56:61:7e:48:8d:20:ff:
                    ae:b6:68:53:b7:20:5b:74:7f:f5:ec:ac:63:fd:93:
                    05:7f:b6:09:cd:59:32:4e:6f:c3:f4:6e:7b:5d:9a:
                    72:52:63:5e:db:18:22:33:26:43:72:1d:12:2a:57:
                    88:f1:16:20:58:77:39:61:60:dd:d3:4f:9b:37:05:
                    e1:68:e8:6a:7f:6a:53:1b:d2:56:48:a4:ba:16:c4:
                    eb:c8:3c:4d:e7:6d:b2:40:32:d9:dd:7c:8d:cb:87:
                    10:ad:d8:ac:1f:d7:43:69:6a:00:11:df:d2:27:f6:
                    f1:4b:be:c1:2a:bd:88:d8:70:7c:38:1a:75:9d:a9:
                    51:1f:71:75:b1:50:d1:c5:4b:ea:33:9b:34:15:66:
                    7b:fb:30:75:82:ad:d6:39:70:dd:04:27:bb:32:19:
                    64:9e:c4:64:ae:bf:64:be:95:2c:fb:8d:22:62:5d:
                    7a:cb:4b:0c:8f:0f:6e:e7:19:b1:6d:05:df:f9:5f:
                    4c:99:54:2a:2a:f4:9b:dd:d6:39:fd:fd:65:dc:b7:
                    f0:08:b4:05:3e:7f:b7:a8:61:46:3b:7d:62:25:93:
                    7c:f1:f5:01:13:72:04:07:42:31:6c:b5:50:0b:98:
                    56:2d:d7:9c:10:75:30:d4:2b:6c:34:ce:6b:2c:8f:
                    3d:e8:cb:c5:61:a0:03:f6:c0:bb:f8:8d:10:17:03:
                    70:f4:86:7d:2f:4e:b1:2a:2c:98:97:09:c6:3e:03:
                    af:ef:79:85:2e:48:ca:15:a3:c8:c2:49:49:cc:80:
                    5c:e1:de:d9:6d:fb:d4:22:23:34:28:6d:5d:3f:cc:
                    ed:59:b3:8d:e2:fb:34:a0:2b:f3:f5:ca:b3:58:36:
                    b2:51:f3:bf:a8:5a:b0:5f:46:65:fb:91:51:fd:5c:
                    d0:f8:67:10:a0:e4:13:47:4b:52:20:5f:15:bd:cf:
                    4c:d2:f9:78:97:75:e5:34:11:79:e6:c4:53:76:ae:
                    2a:5d:49:50:90:3a:f0:98:d7:8f:f3:ba:13:92:55:
                    d4:5d:5c:05:03:87:d7:24:11:3c:09:21:c2:2f:1e:
                    c8:4b:42:51:3a:6f:c6:99:17:9d:0c:f2:f9:df:32:
                    bd:9d:3b:26:a2:69:4e:1b:20:45:7a:70:fa:6e:ca:
                    13:49:37
                Exponent: 65537 (0x10001)
        X509v3 extensions:
            X509v3 Subject Key Identifier: 
                45:90:55:C0:71:9C:3F:6B:D2:44:F3:A1:7C:C3:2B:69:52:6E:75:8C
            X509v3 Authority Key Identifier: 
                keyid:40:EA:16:26:A6:2C:7C:7B:24:5D:CF:CB:6C:A7:90:2C:3F:01:17:0A
                DirName:/C=CH/ST=Soleure/L=Olten/O=Ancient Solutions/OU=Platform Management/CN=Root CA/emailAddress=admins@ancient-solutions.com
                serial:C2:BC:F6:4E:94:21:A5:2E

            X509v3 Basic Constraints: 
                CA:TRUE
            X509v3 Key Usage: 
                Certificate Sign, CRL Sign
            Netscape Cert Type: 
                SSL CA, S/MIME CA
    Signature Algorithm: sha1WithRSAEncryption
         9f:da:ea:22:33:d6:00:a8:19:af:47:44:09:1d:7b:81:99:e3:
         f0:06:04:5b:9c:3c:a9:12:a7:48:f3:08:79:59:ae:c7:85:05:
         cc:e1:0c:50:40:3b:6c:dd:00:d5:2b:80:cb:6e:75:4b:54:a7:
         4f:22:4a:d3:2c:ed:9f:69:fd:84:7a:59:08:3c:64:07:71:28:
         f4:14:a1:16:6d:b0:21:49:df:dc:90:44:83:93:15:d2:f7:2e:
         88:83:d8:63:d4:8c:94:a7:25:a5:d8:9c:d2:65:38:f9:ac:55:
         bc:33:fe:ba:f1:cd:96:11:4f:fb:83:c4:4f:bf:85:ec:d8:ae:
         f1:fd:c9:d0:59:b5:70:9d:53:9a:a5:9a:ba:8e:ce:2b:78:6b:
         8b:44:c8:e9:17:74:e8:a5:86:8c:86:76:20:b9:44:b9:91:99:
         91:18:33:be:5e:1b:e7:56:cf:1c:b0:cc:aa:f3:df:cf:b2:dc:
         2c:2d:2a:97:3f:08:48:fe:3e:26:6d:21:d9:04:7f:6f:b6:03:
         be:bf:92:e9:56:57:23:0a:25:09:e1:68:dc:17:9d:8f:e6:c4:
         4e:80:f7:0a:ce:1d:f8:c2:4f:83:e0:3e:2d:e4:3f:2e:a4:90:
         48:04:3a:ae:9d:57:21:42:8c:7d:ec:7f:c2:69:cd:9a:6c:db:
         88:50:83:31:b0:3a:68:7f:ed:50:d7:00:0c:da:8f:77:cd:3d:
         d8:73:1b:13:8b:9b:db:26:53:e4:27:95:4a:ad:b5:0d:c4:e9:
         08:88:3f:65:05:ec:c9:ac:6f:e7:09:db:77:80:30:07:f6:af:
         de:a0:47:c8:76:f4:b2:02:f9:55:ac:da:a0:57:e4:16:b1:1f:
         43:11:2b:07:47:81:d2:c3:f9:22:9e:3a:56:57:bb:ab:c2:5e:
         f0:59:56:c1:25:fd:38:30:91:45:ff:95:56:8a:8a:84:72:d3:
         9b:35:83:4c:ff:d7:6f:5a:39:88:92:14:04:5d:e9:06:e1:ca:
         8a:2f:22:46:77:71:cd:dd:4c:54:50:f1:b9:80:fb:f8:19:e3:
         e9:76:ec:c3:7d:46:dd:f7:8e:f9:1b:29:1f:a9:47:4b:98:9f:
         78:34:d3:9d:8f:18:d4:c2:92:a5:d9:32:9d:fa:a1:33:9d:0f:
         21:d8:42:74:57:1e:b6:0e:6f:cc:32:a8:17:b6:07:9d:e0:eb:
         4c:b1:11:08:b5:a7:48:06:ce:ab:52:e0:41:4e:35:9b:21:fb:
         fd:e0:bc:0e:d7:f9:63:d1:65:fc:fd:53:15:28:11:96:02:e2:
         c5:fa:bc:62:7f:80:5c:45:bb:98:cd:5a:63:52:39:98:e6:b0:
         29:6b:88:57:69:f6:44:f2
-----BEGIN CERTIFICATE-----
MIIG8jCCBNqgAwIBAgIBADANBgkqhkiG9w0BAQUFADCBqDELMAkGA1UEBhMCQ0gx
EDAOBgNVBAgTB1NvbGV1cmUxDjAMBgNVBAcTBU9sdGVuMRowGAYDVQQKExFBbmNp
ZW50IFNvbHV0aW9uczEcMBoGA1UECxMTUGxhdGZvcm0gTWFuYWdlbWVudDEQMA4G
A1UEAxMHUm9vdCBDQTErMCkGCSqGSIb3DQEJARYcYWRtaW5zQGFuY2llbnQtc29s
dXRpb25zLmNvbTAeFw0xMzA2MjUyMTU2MjJaFw0zMzA2MjAyMTU2MjJaMIGaMQsw
CQYDVQQGEwJDSDEQMA4GA1UECBMHU29sZXVyZTEaMBgGA1UEChMRQW5jaWVudCBT
b2x1dGlvbnMxGzAZBgNVBAsTElNlcnZpY2UgT3BlcmF0aW9uczETMBEGA1UEAxMK
U2VydmljZSBDQTErMCkGCSqGSIb3DQEJARYcYWRtaW5zQGFuY2llbnQtc29sdXRp
b25zLmNvbTCCAiIwDQYJKoZIhvcNAQEBBQADggIPADCCAgoCggIBAKvFngcicU1q
h1qFI49INwlIICSVdIH1Ajt4ShoR+5zKCU7rdjSQXjzjHEUkI5FSsZig4tc+zIyh
creKcQnpx4EV2eLImyKjEmTgtHhH0p4eZXdWYX5IjSD/rrZoU7cgW3R/9eysY/2T
BX+2Cc1ZMk5vw/Rue12aclJjXtsYIjMmQ3IdEipXiPEWIFh3OWFg3dNPmzcF4Wjo
an9qUxvSVkikuhbE68g8TedtskAy2d18jcuHEK3YrB/XQ2lqABHf0if28Uu+wSq9
iNhwfDgadZ2pUR9xdbFQ0cVL6jObNBVme/swdYKt1jlw3QQnuzIZZJ7EZK6/ZL6V
LPuNImJdestLDI8PbucZsW0F3/lfTJlUKir0m93WOf39Zdy38Ai0BT5/t6hhRjt9
YiWTfPH1ARNyBAdCMWy1UAuYVi3XnBB1MNQrbDTOayyPPejLxWGgA/bAu/iNEBcD
cPSGfS9OsSosmJcJxj4Dr+95hS5IyhWjyMJJScyAXOHe2W371CIjNChtXT/M7Vmz
jeL7NKAr8/XKs1g2slHzv6hasF9GZfuRUf1c0PhnEKDkE0dLUiBfFb3PTNL5eJd1
5TQReebEU3auKl1JUJA68JjXj/O6E5JV1F1cBQOH1yQRPAkhwi8eyEtCUTpvxpkX
nQzy+d8yvZ07JqJpThsgRXpw+m7KE0k3AgMBAAGjggExMIIBLTAdBgNVHQ4EFgQU
RZBVwHGcP2vSRPOhfMMraVJudYwwgd0GA1UdIwSB1TCB0oAUQOoWJqYsfHskXc/L
bKeQLD8BFwqhga6kgaswgagxCzAJBgNVBAYTAkNIMRAwDgYDVQQIEwdTb2xldXJl
MQ4wDAYDVQQHEwVPbHRlbjEaMBgGA1UEChMRQW5jaWVudCBTb2x1dGlvbnMxHDAa
BgNVBAsTE1BsYXRmb3JtIE1hbmFnZW1lbnQxEDAOBgNVBAMTB1Jvb3QgQ0ExKzAp
BgkqhkiG9w0BCQEWHGFkbWluc0BhbmNpZW50LXNvbHV0aW9ucy5jb22CCQDCvPZO
lCGlLjAMBgNVHRMEBTADAQH/MAsGA1UdDwQEAwIBBjARBglghkgBhvhCAQEEBAMC
AQYwDQYJKoZIhvcNAQEFBQADggIBAJ/a6iIz1gCoGa9HRAkde4GZ4/AGBFucPKkS
p0jzCHlZrseFBczhDFBAO2zdANUrgMtudUtUp08iStMs7Z9p/YR6WQg8ZAdxKPQU
oRZtsCFJ39yQRIOTFdL3LoiD2GPUjJSnJaXYnNJlOPmsVbwz/rrxzZYRT/uDxE+/
hezYrvH9ydBZtXCdU5qlmrqOzit4a4tEyOkXdOilhoyGdiC5RLmRmZEYM75eG+dW
zxywzKrz38+y3CwtKpc/CEj+PiZtIdkEf2+2A76/kulWVyMKJQnhaNwXnY/mxE6A
9wrOHfjCT4PgPi3kPy6kkEgEOq6dVyFCjH3sf8JpzZps24hQgzGwOmh/7VDXAAza
j3fNPdhzGxOLm9smU+QnlUqttQ3E6QiIP2UF7Mmsb+cJ23eAMAf2r96gR8h29LIC
+VWs2qBX5BaxH0MRKwdHgdLD+SKeOlZXu6vCXvBZVsEl/TgwkUX/lVaKioRy05s1
g0z/129aOYiSFARd6QbhyoovIkZ3cc3dTFRQ8bmA+/gZ4+l27MN9Rt33jvkbKR+p
R0uYn3g0052PGNTCkqXZMp36oTOdDyHYQnRXHrYOb8wyqBe2B53g60yxEQi1p0gG
zqtS4EFONZsh+/3gvA7X+WPRZfz9UxUoEZYC4sX6vGJ/gFxFu5jNWmNSOZjmsClr
iFdp9kTy
-----END CERTIFICATE-----
Certificate:
    Data:
        Version: 3 (0x2)
        Serial Number: 2 (0x2)
    Signature Algorithm: sha1WithRSAEncryption
        Issuer: C=CH, ST=Soleure, L=Olten, O=Ancient Solutions, OU=Platform Management, CN=Root CA/emailAddress=admins@ancient-solutions.com
        Validity
            Not Before: Jun 25 21:59:57 2013 GMT
            Not After : Jun 20 21:59:57 2033 GMT
        Subject: C=CH, ST=Soleure, O=Ancient Solutions, OU=User Signing, CN=User CA/emailAddress=admins@ancient-solutions.com
        Subject Public Key Info:
            Public Key Algorithm: rsaEncryption
                Public-Key: (4096 bit)
                Modulus:
                    00:c4:10:7b:58:cf:a5:b5:9b:18:80:e6:85:8a:22:
                    97:09:f2:6f:02:4d:f5:eb:86:c2:fa:04:a9:47:bf:
                    1a:7c:5a:a3:fc:2c:91:1c:d7:16:1b:bf:12:db:2f:
                    d7:e1:fe:fe:6c:b1:e3:a8:e3:f5:eb:6a:2e:14:3d:
                    76:83:46:55:9e:f6:30:96:34:5b:26:fa:66:06:d2:
                    03:27:01:2b:8e:2b:7a:53:4e:64:79:66:77:dd:9b:
                    59:39:4b:cf:b4:f2:e9:53:79:e4:99:a3:35:04:46:
                    08:1b:87:19:86:cc:63:6b:10:e2:80:8d:3d:6d:25:
                    83:f0:74:5f:3a:d0:e8:c1:2d:6e:a5:d5:5f:d3:52:
                    c0:04:29:10:02:67:9f:0d:87:3b:e7:cd:6e:35:27:
                    5a:65:f2:bc:ef:b0:68:3d:46:99:ff:0e:c1:8c:b0:
                    3b:da:c4:7e:f7:f9:13:07:57:38:cf:05:b9:3a:f2:
                    10:5a:bb:b1:4f:41:e1:cb:1a:7b:47:e5:56:0b:1c:
                    00:e7:67:49:4c:22:22:69:fa:c6:a2:f5:dc:3c:f3:
                    95:58:61:5c:87:42:ee:dd:58:f2:99:2e:8a:cf:fd:
                    7d:89:29:a9:52:e6:f7:7f:39:9f:06:4c:a3:29:1d:
                    1d:03:0d:b3:12:d2:4e:71:c1:fc:85:1e:96:20:11:
                    4e:4c:b4:c7:35:a2:11:34:4c:7c:8c:3f:2e:22:e9:
                    a7:46:87:fb:a6:48:e6:6e:65:13:b4:cb:3c:69:e0:
                    ad:64:a4:71:f8:ce:c1:97:4d:7c:a5:cf:60:fd:45:
                    11:10:a7:62:6f:b0:6a:5e:ab:ae:44:d3:bb:bd:5f:
                    1a:5c:45:a7:48:ef:34:2d:ab:34:62:79:90:de:61:
                    f1:e9:e0:a5:c6:34:8a:12:29:6f:fa:6a:90:69:a6:
                    45:cd:1e:a4:76:61:1a:04:33:4a:ec:19:c2:4c:de:
                    68:61:1c:7a:31:67:18:69:3a:e7:1d:06:13:80:db:
                    a8:c5:90:14:2e:3b:c4:b4:7d:c3:6e:0f:32:51:ce:
                    95:7a:bc:a0:b8:57:ef:7b:04:59:2e:72:05:90:da:
                    82:ae:c3:b9:4a:55:4f:71:92:5e:77:de:62:3d:41:
                    8f:f3:4a:20:10:30:87:07:4b:66:d1:01:52:6f:59:
                    c8:1f:85:c9:d6:b1:65:a9:dc:e7:11:af:00:5f:79:
                    78:7b:bb:d6:ae:a0:5c:1a:97:c9:c0:1b:8d:07:93:
                    e5:04:89:ca:5d:a5:d4:9e:69:62:63:f4:a0:bc:2d:
                    e8:de:f7:28:18:09:28:62:26:47:14:42:32:26:f0:
                    ad:2f:4a:92:cf:00:14:25:17:40:65:0e:70:e8:ad:
                    92:29:d9
                Exponent: 65537 (0x10001)
        X509v3 extensions:
            X509v3 Subject Key Identifier: 
                CB:D5:30:54:1C:E8:D9:45:20:D6:A4:8D:62:2C:80:92:C6:3A:D4:E5
            X509v3 Authority Key Identifier: 
                keyid:40:EA:16:26:A6:2C:7C:7B:24:5D:CF:CB:6C:A7:90:2C:3F:01:17:0A
                DirName:/C=CH/ST=Soleure/L=Olten/O=Ancient Solutions/OU=Platform Management/CN=Root CA/emailAddress=admins@ancient-solutions.com
                serial:C2:BC:F6:4E:94:21:A5:2E

            X509v3 Basic Constraints: 
                CA:TRUE
            X509v3 Key Usage: 
                Certificate Sign, CRL Sign
            Netscape Cert Type: 
                SSL CA, S/MIME CA
    Signature Algorithm: sha1WithRSAEncryption
         8b:06:b6:8f:4e:de:a8:82:d8:dc:cd:e2:91:94:c6:7f:a2:fa:
         ae:05:00:5b:2f:0c:4b:5a:4d:5a:b6:c6:99:12:d0:20:86:c3:
         24:70:04:f0:bb:da:df:60:e8:11:64:16:dd:ce:ff:5e:e4:ff:
         73:49:53:31:22:15:3a:2d:d4:41:e3:f2:01:e0:1a:f7:3e:97:
         06:c0:77:fe:ec:ef:0e:f7:c1:5c:d3:ea:05:02:0f:70:97:3c:
         f0:af:c3:78:e3:17:36:31:be:00:91:ce:d0:85:c2:a8:1c:c4:
         fe:de:0e:67:2c:12:1b:bc:10:42:9a:5d:2b:39:5b:d4:2d:f4:
         4f:7d:1d:ef:c9:6a:cf:37:88:9a:4e:70:03:47:af:fa:02:ec:
         d4:bd:31:1b:66:24:71:2e:79:4f:ed:c2:4d:b0:67:9d:57:af:
         7f:bc:5c:37:81:17:c4:a0:34:eb:ad:d0:5f:0c:c7:61:0a:f6:
         37:43:d5:ac:9c:4c:60:4e:ea:c9:2c:95:65:8a:f8:3e:66:52:
         b6:19:74:ad:bc:30:62:c2:d7:fe:44:dc:31:fe:f0:a9:a4:e3:
         81:cd:fd:ea:a5:58:ed:0b:39:51:98:6d:52:89:ff:b0:e8:61:
         6e:fa:83:3c:d6:51:a5:f2:b3:23:18:3e:9f:60:c2:d4:75:8b:
         41:4d:66:2c:7e:47:e4:0c:ee:ae:ab:38:6d:e5:ba:63:fb:c8:
         2e:64:e1:9d:a5:29:d4:0f:29:41:7f:cb:cf:de:e4:97:d7:60:
         f9:bb:31:ee:e6:db:6a:9e:96:2c:9a:df:b2:b9:81:a7:4e:f9:
         03:59:b4:c5:6a:b0:5d:c3:e6:f9:fe:6f:51:38:ec:19:f3:06:
         fd:dc:40:1c:5c:24:9f:bd:63:5b:be:89:f8:61:13:1b:36:6e:
         b1:00:ed:f6:66:47:e6:70:4e:81:8d:75:c4:45:64:fb:dd:76:
         e3:85:df:73:c7:db:a5:89:8a:9e:5c:17:18:02:97:ce:42:a0:
         69:cd:a5:99:c9:a3:61:41:c4:48:05:42:57:b8:6d:6b:bb:fa:
         68:f2:f4:fb:3a:ee:8b:97:97:a1:6a:16:fa:52:02:6f:f0:5b:
         a1:b6:b2:af:9c:2e:e0:f7:a0:06:28:67:78:e1:3e:5b:e9:70:
         35:19:1d:43:2d:4e:82:c9:c9:db:27:46:5e:b1:09:8e:1e:37:
         91:a5:4e:82:7b:0f:37:68:66:e2:54:50:d0:37:c5:50:97:13:
         7e:d4:e7:9e:9a:f4:c8:f0:d5:af:f0:55:62:66:37:46:a4:73:
         e8:64:6e:f5:c0:c6:5c:e9:09:97:a4:dd:78:01:1b:f5:12:fb:
         6f:a3:af:a1:89:b3:6d:b5
-----BEGIN CERTIFICATE-----
MIIG6TCCBNGgAwIBAgIBAjANBgkqhkiG9w0BAQUFADCBqDELMAkGA1UEBhMCQ0gx
EDAOBgNVBAgTB1NvbGV1cmUxDjAMBgNVBAcTBU9sdGVuMRowGAYDVQQKExFBbmNp
ZW50IFNvbHV0aW9uczEcMBoGA1UECxMTUGxhdGZvcm0gTWFuYWdlbWVudDEQMA4G
A1UEAxMHUm9vdCBDQTErMCkGCSqGSIb3DQEJARYcYWRtaW5zQGFuY2llbnQtc29s
dXRpb25zLmNvbTAeFw0xMzA2MjUyMTU5NTdaFw0zMzA2MjAyMTU5NTdaMIGRMQsw
CQYDVQQGEwJDSDEQMA4GA1UECBMHU29sZXVyZTEaMBgGA1UEChMRQW5jaWVudCBT
b2x1dGlvbnMxFTATBgNVBAsTDFVzZXIgU2lnbmluZzEQMA4GA1UEAxMHVXNlciBD
QTErMCkGCSqGSIb3DQEJARYcYWRtaW5zQGFuY2llbnQtc29sdXRpb25zLmNvbTCC
AiIwDQYJKoZIhvcNAQEBBQADggIPADCCAgoCggIBAMQQe1jPpbWbGIDmhYoilwny
bwJN9euGwvoEqUe/Gnxao/wskRzXFhu/Etsv1+H+/myx46jj9etqLhQ9doNGVZ72
MJY0Wyb6ZgbSAycBK44relNOZHlmd92bWTlLz7Ty6VN55JmjNQRGCBuHGYbMY2sQ
4oCNPW0lg/B0XzrQ6MEtbqXVX9NSwAQpEAJnnw2HO+fNbjUnWmXyvO+waD1Gmf8O
wYywO9rEfvf5EwdXOM8FuTryEFq7sU9B4csae0flVgscAOdnSUwiImn6xqL13Dzz
lVhhXIdC7t1Y8pkuis/9fYkpqVLm9385nwZMoykdHQMNsxLSTnHB/IUeliARTky0
xzWiETRMfIw/LiLpp0aH+6ZI5m5lE7TLPGngrWSkcfjOwZdNfKXPYP1FERCnYm+w
al6rrkTTu71fGlxFp0jvNC2rNGJ5kN5h8engpcY0ihIpb/pqkGmmRc0epHZhGgQz
SuwZwkzeaGEcejFnGGk65x0GE4DbqMWQFC47xLR9w24PMlHOlXq8oLhX73sEWS5y
BZDagq7DuUpVT3GSXnfeYj1Bj/NKIBAwhwdLZtEBUm9ZyB+FydaxZanc5xGvAF95
eHu71q6gXBqXycAbjQeT5QSJyl2l1J5pYmP0oLwt6N73KBgJKGImRxRCMibwrS9K
ks8AFCUXQGUOcOitkinZAgMBAAGjggExMIIBLTAdBgNVHQ4EFgQUy9UwVBzo2UUg
1qSNYiyAksY61OUwgd0GA1UdIwSB1TCB0oAUQOoWJqYsfHskXc/LbKeQLD8BFwqh
ga6kgaswgagxCzAJBgNVBAYTAkNIMRAwDgYDVQQIEwdTb2xldXJlMQ4wDAYDVQQH
EwVPbHRlbjEaMBgGA1UEChMRQW5jaWVudCBTb2x1dGlvbnMxHDAaBgNVBAsTE1Bs
YXRmb3JtIE1hbmFnZW1lbnQxEDAOBgNVBAMTB1Jvb3QgQ0ExKzApBgkqhkiG9w0B
CQEWHGFkbWluc0BhbmNpZW50LXNvbHV0aW9ucy5jb22CCQDCvPZOlCGlLjAMBgNV
HRMEBTADAQH/MAsGA1UdDwQEAwIBBjARBglghkgBhvhCAQEEBAMCAQYwDQYJKoZI
hvcNAQEFBQADggIBAIsGto9O3qiC2NzN4pGUxn+i+q4FAFsvDEtaTVq2xpkS0CCG
wyRwBPC72t9g6BFkFt3O/17k/3NJUzEiFTot1EHj8gHgGvc+lwbAd/7s7w73wVzT
6gUCD3CXPPCvw3jjFzYxvgCRztCFwqgcxP7eDmcsEhu8EEKaXSs5W9Qt9E99He/J
as83iJpOcANHr/oC7NS9MRtmJHEueU/twk2wZ51Xr3+8XDeBF8SgNOut0F8Mx2EK
9jdD1aycTGBO6skslWWK+D5mUrYZdK28MGLC1/5E3DH+8Kmk44HN/eqlWO0LOVGY
bVKJ/7DoYW76gzzWUaXysyMYPp9gwtR1i0FNZix+R+QM7q6rOG3lumP7yC5k4Z2l
KdQPKUF/y8/e5JfXYPm7Me7m22qeliya37K5gadO+QNZtMVqsF3D5vn+b1E47Bnz
Bv3cQBxcJJ+9Y1u+ifhhExs2brEA7fZmR+ZwToGNdcRFZPvdduOF33PH26WJip5c
FxgCl85CoGnNpZnJo2FBxEgFQle4bWu7+mjy9Ps67ouXl6FqFvpSAm/wW6G2sq+c
LuD3oAYoZ3jhPlvpcDUZHUMtToLJydsnRl6xCY4eN5GlToJ7DzdoZuJUUNA3xVCX
E37U556a9Mjw1a/wVWJmN0akc+hkbvXAxlzpCZek3XgBG/US+2+jr6GJs221
-----END CERTIFICATE-----
